	.text
	.file	"blah.7rcbfp3g-cgu.0"
	.section	.text._ZN3std2rt10lang_start17h61e5f11fc43499b0E,"ax",@progbits
	.hidden	_ZN3std2rt10lang_start17h61e5f11fc43499b0E
	.globl	_ZN3std2rt10lang_start17h61e5f11fc43499b0E
	.p2align	4, 0x90
	.type	_ZN3std2rt10lang_start17h61e5f11fc43499b0E,@function
_ZN3std2rt10lang_start17h61e5f11fc43499b0E:
.Lfunc_begin0:
	.file	1 "/rustc/710a362dc7634fce42885327b6b7b1b3a9b0c41a/src/libstd/rt.rs"
	.loc	1 62 0
	.cfi_startproc
	subq	$56, %rsp
	.cfi_def_cfa_offset 64
	leaq	.Lvtable.0(%rip), %rax
	movq	%rdi, 24(%rsp)
	movq	%rsi, 32(%rsp)
	movq	%rdx, 40(%rsp)
.Ltmp0:
	.loc	1 67 25 prologue_end
	movq	24(%rsp), %rcx
	movq	%rcx, 48(%rsp)
	.loc	1 67 24 is_stmt 0
	leaq	48(%rsp), %rcx
	.loc	1 67 50
	movq	32(%rsp), %rdx
	.loc	1 67 56
	movq	40(%rsp), %rsi
	.loc	1 67 4
	movq	%rcx, %rdi
	movq	%rsi, 16(%rsp)
	movq	%rax, %rsi
	movq	16(%rsp), %rcx
	callq	*_ZN3std2rt19lang_start_internal17ha3659bc10d021327E@GOTPCREL(%rip)
	movq	%rax, 8(%rsp)
	.loc	1 0 4
	movq	8(%rsp), %rax
	.loc	1 68 1 is_stmt 1
	addq	$56, %rsp
	.cfi_def_cfa_offset 8
	retq
.Ltmp1:
.Lfunc_end0:
	.size	_ZN3std2rt10lang_start17h61e5f11fc43499b0E, .Lfunc_end0-_ZN3std2rt10lang_start17h61e5f11fc43499b0E
	.cfi_endproc

	.section	".text._ZN3std2rt10lang_start28_$u7b$$u7b$closure$u7d$$u7d$17hb0ba6925efc6e00bE","ax",@progbits
	.p2align	4, 0x90
	.type	_ZN3std2rt10lang_start28_$u7b$$u7b$closure$u7d$$u7d$17hb0ba6925efc6e00bE,@function
_ZN3std2rt10lang_start28_$u7b$$u7b$closure$u7d$$u7d$17hb0ba6925efc6e00bE:
.Lfunc_begin1:
	.loc	1 67 0
	.cfi_startproc
	subq	$24, %rsp
	.cfi_def_cfa_offset 32
	movq	%rdi, 16(%rsp)
.Ltmp2:
	.loc	1 67 33 prologue_end
	movq	16(%rsp), %rax
	callq	*(%rax)
	callq	_ZN54_$LT$$LP$$RP$$u20$as$u20$std..process..Termination$GT$6report17ha6b420331382674fE
	movl	%eax, 12(%rsp)
	.loc	1 0 33 is_stmt 0
	movl	12(%rsp), %eax
	.loc	1 67 48
	addq	$24, %rsp
	.cfi_def_cfa_offset 8
	retq
.Ltmp3:
.Lfunc_end1:
	.size	_ZN3std2rt10lang_start28_$u7b$$u7b$closure$u7d$$u7d$17hb0ba6925efc6e00bE, .Lfunc_end1-_ZN3std2rt10lang_start28_$u7b$$u7b$closure$u7d$$u7d$17hb0ba6925efc6e00bE
	.cfi_endproc

	.section	.text._ZN3std3sys4unix7process14process_common8ExitCode6as_i3217h3797b8e2140a9282E,"ax",@progbits
	.p2align	4, 0x90
	.type	_ZN3std3sys4unix7process14process_common8ExitCode6as_i3217h3797b8e2140a9282E,@function
_ZN3std3sys4unix7process14process_common8ExitCode6as_i3217h3797b8e2140a9282E:
.Lfunc_begin2:
	.file	2 "/rustc/710a362dc7634fce42885327b6b7b1b3a9b0c41a/src/libstd/sys/unix/process/process_common.rs"
	.loc	2 394 0 is_stmt 1
	.cfi_startproc
	pushq	%rax
	.cfi_def_cfa_offset 16
	movq	%rdi, (%rsp)
.Ltmp4:
	.loc	2 395 8 prologue_end
	movq	(%rsp), %rax
	movzbl	(%rax), %eax
	.loc	2 396 5
	popq	%rcx
	.cfi_def_cfa_offset 8
	retq
.Ltmp5:
.Lfunc_end2:
	.size	_ZN3std3sys4unix7process14process_common8ExitCode6as_i3217h3797b8e2140a9282E, .Lfunc_end2-_ZN3std3sys4unix7process14process_common8ExitCode6as_i3217h3797b8e2140a9282E
	.cfi_endproc

	.section	.text._ZN4core3fmt10ArgumentV13new17ha49368782a0d00daE,"ax",@progbits
	.p2align	4, 0x90
	.type	_ZN4core3fmt10ArgumentV13new17ha49368782a0d00daE,@function
_ZN4core3fmt10ArgumentV13new17ha49368782a0d00daE:
.Lfunc_begin3:
	.file	3 "/rustc/710a362dc7634fce42885327b6b7b1b3a9b0c41a/src/libcore/fmt/mod.rs"
	.loc	3 277 0
	.cfi_startproc
	subq	$64, %rsp
	.cfi_def_cfa_offset 72
	movq	%rdi, 16(%rsp)
	movq	%rsi, 24(%rsp)
.Ltmp6:
	.loc	3 278 56 prologue_end
	movq	24(%rsp), %rax
	.loc	3 278 41 is_stmt 0
	movq	%rax, 48(%rsp)
	movq	48(%rsp), %rax
	movq	%rax, 8(%rsp)
	.loc	3 278 82
	movq	16(%rsp), %rax
	.loc	3 278 67
	movq	%rax, 56(%rsp)
	movq	56(%rsp), %rax
	movq	%rax, (%rsp)
	.loc	3 0 67
	movq	(%rsp), %rax
	.loc	3 278 17
	movq	%rax, 32(%rsp)
	movq	8(%rsp), %rcx
	movq	%rcx, 40(%rsp)
.Ltmp7:
	.loc	3 279 5 is_stmt 1
	movq	32(%rsp), %rax
	movq	40(%rsp), %rdx
	addq	$64, %rsp
	.cfi_def_cfa_offset 8
	retq
.Ltmp8:
.Lfunc_end3:
	.size	_ZN4core3fmt10ArgumentV13new17ha49368782a0d00daE, .Lfunc_end3-_ZN4core3fmt10ArgumentV13new17ha49368782a0d00daE
	.cfi_endproc

	.section	.text._ZN4core3fmt9Arguments6new_v117h3b68aedbd02220b7E,"ax",@progbits
	.p2align	4, 0x90
	.type	_ZN4core3fmt9Arguments6new_v117h3b68aedbd02220b7E,@function
_ZN4core3fmt9Arguments6new_v117h3b68aedbd02220b7E:
.Lfunc_begin4:
	.loc	3 313 0
	.cfi_startproc
	subq	$48, %rsp
	.cfi_def_cfa_offset 56
	movq	%rdi, %rax
	movq	%rsi, (%rsp)
	movq	%rdx, 8(%rsp)
	movq	%rcx, 16(%rsp)
	movq	%r8, 24(%rsp)
.Ltmp9:
	.loc	3 314 20 prologue_end
	movq	(%rsp), %rcx
	movq	8(%rsp), %rdx
	.loc	3 314 33 is_stmt 0
	movq	$0, 32(%rsp)
	.loc	3 314 39
	movq	16(%rsp), %rsi
	movq	24(%rsp), %r8
	.loc	3 314 8
	movq	%rcx, (%rdi)
	movq	%rdx, 8(%rdi)
	movq	32(%rsp), %rcx
	movq	40(%rsp), %rdx
	movq	%rcx, 16(%rdi)
	movq	%rdx, 24(%rdi)
	movq	%rsi, 32(%rdi)
	movq	%r8, 40(%rdi)
	.loc	3 315 5 is_stmt 1
	addq	$48, %rsp
	.cfi_def_cfa_offset 8
	retq
.Ltmp10:
.Lfunc_end4:
	.size	_ZN4core3fmt9Arguments6new_v117h3b68aedbd02220b7E, .Lfunc_end4-_ZN4core3fmt9Arguments6new_v117h3b68aedbd02220b7E
	.cfi_endproc

	.section	".text._ZN4core3ops8function6FnOnce40call_once$u7b$$u7b$vtable.shim$u7d$$u7d$17h85328a11400f02b0E","ax",@progbits
	.p2align	4, 0x90
	.type	_ZN4core3ops8function6FnOnce40call_once$u7b$$u7b$vtable.shim$u7d$$u7d$17h85328a11400f02b0E,@function
_ZN4core3ops8function6FnOnce40call_once$u7b$$u7b$vtable.shim$u7d$$u7d$17h85328a11400f02b0E:
.Lfunc_begin5:
	.file	4 "/rustc/710a362dc7634fce42885327b6b7b1b3a9b0c41a/src/libcore/ops/function.rs"
	.loc	4 232 0
	.cfi_startproc
	subq	$24, %rsp
	.cfi_def_cfa_offset 32
	movq	%rdi, 8(%rsp)
.Ltmp11:
	.loc	4 232 4 prologue_end
	movq	8(%rsp), %rax
	movq	(%rax), %rdi
	callq	_ZN4core3ops8function6FnOnce9call_once17h1c6a3bdd323dafbcE
	movl	%eax, 4(%rsp)
	.loc	4 0 4 is_stmt 0
	movl	4(%rsp), %eax
	.loc	4 232 4
	addq	$24, %rsp
	.cfi_def_cfa_offset 8
	retq
.Ltmp12:
.Lfunc_end5:
	.size	_ZN4core3ops8function6FnOnce40call_once$u7b$$u7b$vtable.shim$u7d$$u7d$17h85328a11400f02b0E, .Lfunc_end5-_ZN4core3ops8function6FnOnce40call_once$u7b$$u7b$vtable.shim$u7d$$u7d$17h85328a11400f02b0E
	.cfi_endproc

	.section	.text._ZN4core3ops8function6FnOnce9call_once17h1c6a3bdd323dafbcE,"ax",@progbits
	.p2align	4, 0x90
	.type	_ZN4core3ops8function6FnOnce9call_once17h1c6a3bdd323dafbcE,@function
_ZN4core3ops8function6FnOnce9call_once17h1c6a3bdd323dafbcE:
.Lfunc_begin6:
	.loc	4 232 0 is_stmt 1
	.cfi_startproc
	.cfi_personality 155, DW.ref.rust_eh_personality
	.cfi_lsda 27, .Lexception0
	subq	$40, %rsp
	.cfi_def_cfa_offset 48
	movq	%rdi, 8(%rsp)
.Ltmp13:
	leaq	8(%rsp), %rdi
.Ltmp16:
	.loc	4 232 4 prologue_end
	callq	_ZN3std2rt10lang_start28_$u7b$$u7b$closure$u7d$$u7d$17hb0ba6925efc6e00bE
.Ltmp14:
	movl	%eax, 4(%rsp)
	jmp	.LBB6_1
.LBB6_1:
	jmp	.LBB6_2
.LBB6_2:
	.loc	4 0 4 is_stmt 0
	movl	4(%rsp), %eax
	.loc	4 232 4
	addq	$40, %rsp
	.cfi_def_cfa_offset 8
	retq
.LBB6_3:
	.cfi_def_cfa_offset 48
	jmp	.LBB6_4
.LBB6_4:
	movq	24(%rsp), %rdi
	callq	_Unwind_Resume@PLT
	ud2
.Ltmp17:
.LBB6_5:
.Ltmp15:
	.loc	4 0 4
	movq	%rax, 24(%rsp)
	movl	%edx, 32(%rsp)
	jmp	.LBB6_3
.Lfunc_end6:
	.size	_ZN4core3ops8function6FnOnce9call_once17h1c6a3bdd323dafbcE, .Lfunc_end6-_ZN4core3ops8function6FnOnce9call_once17h1c6a3bdd323dafbcE
	.cfi_endproc
	.section	.gcc_except_table,"a",@progbits
	.p2align	2
GCC_except_table6:
.Lexception0:
	.byte	255
	.byte	255
	.byte	1
	.uleb128 .Lcst_end0-.Lcst_begin0
.Lcst_begin0:
	.uleb128 .Ltmp13-.Lfunc_begin6
	.uleb128 .Ltmp14-.Ltmp13
	.uleb128 .Ltmp15-.Lfunc_begin6
	.byte	0
	.uleb128 .Ltmp14-.Lfunc_begin6
	.uleb128 .Lfunc_end6-.Ltmp14
	.byte	0
	.byte	0
.Lcst_end0:
	.p2align	2

	.section	.text._ZN4core3ptr18real_drop_in_place17h66f60b5da6e8a5fbE,"ax",@progbits
	.p2align	4, 0x90
	.type	_ZN4core3ptr18real_drop_in_place17h66f60b5da6e8a5fbE,@function
_ZN4core3ptr18real_drop_in_place17h66f60b5da6e8a5fbE:
.Lfunc_begin7:
	.file	5 "/rustc/710a362dc7634fce42885327b6b7b1b3a9b0c41a/src/libcore/ptr/mod.rs"
	.loc	5 181 0 is_stmt 1
	.cfi_startproc
	pushq	%rax
	.cfi_def_cfa_offset 16
	movq	%rdi, (%rsp)
.Ltmp18:
	.loc	5 181 0 prologue_end
	popq	%rax
	.cfi_def_cfa_offset 8
	retq
.Ltmp19:
.Lfunc_end7:
	.size	_ZN4core3ptr18real_drop_in_place17h66f60b5da6e8a5fbE, .Lfunc_end7-_ZN4core3ptr18real_drop_in_place17h66f60b5da6e8a5fbE
	.cfi_endproc

	.section	".text._ZN54_$LT$$LP$$RP$$u20$as$u20$std..process..Termination$GT$6report17ha6b420331382674fE","ax",@progbits
	.p2align	4, 0x90
	.type	_ZN54_$LT$$LP$$RP$$u20$as$u20$std..process..Termination$GT$6report17ha6b420331382674fE,@function
_ZN54_$LT$$LP$$RP$$u20$as$u20$std..process..Termination$GT$6report17ha6b420331382674fE:
.Lfunc_begin8:
	.file	6 "/rustc/710a362dc7634fce42885327b6b7b1b3a9b0c41a/src/libstd/process.rs"
	.loc	6 1653 0
	.cfi_startproc
	subq	$24, %rsp
	.cfi_def_cfa_offset 32
	xorl	%edi, %edi
.Ltmp20:
	.loc	6 1654 8 prologue_end
	callq	_ZN68_$LT$std..process..ExitCode$u20$as$u20$std..process..Termination$GT$6report17h8354cf3d096b63d2E
	movl	%eax, 12(%rsp)
	.loc	6 0 8 is_stmt 0
	movl	12(%rsp), %eax
	.loc	6 1655 5 is_stmt 1
	addq	$24, %rsp
	.cfi_def_cfa_offset 8
	retq
.Ltmp21:
.Lfunc_end8:
	.size	_ZN54_$LT$$LP$$RP$$u20$as$u20$std..process..Termination$GT$6report17ha6b420331382674fE, .Lfunc_end8-_ZN54_$LT$$LP$$RP$$u20$as$u20$std..process..Termination$GT$6report17ha6b420331382674fE
	.cfi_endproc

	.section	".text._ZN68_$LT$std..process..ExitCode$u20$as$u20$std..process..Termination$GT$6report17h8354cf3d096b63d2E","ax",@progbits
	.p2align	4, 0x90
	.type	_ZN68_$LT$std..process..ExitCode$u20$as$u20$std..process..Termination$GT$6report17h8354cf3d096b63d2E,@function
_ZN68_$LT$std..process..ExitCode$u20$as$u20$std..process..Termination$GT$6report17h8354cf3d096b63d2E:
.Lfunc_begin9:
	.loc	6 1687 0
	.cfi_startproc
	pushq	%rax
	.cfi_def_cfa_offset 16
	movb	%dil, 7(%rsp)
.Ltmp22:
	.loc	6 1688 8 prologue_end
	leaq	7(%rsp), %rdi
.Ltmp23:
	callq	_ZN3std3sys4unix7process14process_common8ExitCode6as_i3217h3797b8e2140a9282E
.Ltmp24:
	.loc	6 0 8 is_stmt 0
	movl	%eax, (%rsp)
	movl	(%rsp), %eax
	.loc	6 1689 5 is_stmt 1
	popq	%rcx
	.cfi_def_cfa_offset 8
	retq
.Ltmp25:
.Lfunc_end9:
	.size	_ZN68_$LT$std..process..ExitCode$u20$as$u20$std..process..Termination$GT$6report17h8354cf3d096b63d2E, .Lfunc_end9-_ZN68_$LT$std..process..ExitCode$u20$as$u20$std..process..Termination$GT$6report17h8354cf3d096b63d2E
	.cfi_endproc

	.section	.text._ZN4blah4main17h73645255eb6da523E,"ax",@progbits
	.p2align	4, 0x90
	.type	_ZN4blah4main17h73645255eb6da523E,@function
_ZN4blah4main17h73645255eb6da523E:
.Lfunc_begin10:
	.file	7 "/home/sauyon/devel/aoc/2019/6/blah.rs"
	.loc	7 3 0
	.cfi_startproc
	subq	$168, %rsp
	.cfi_def_cfa_offset 176
.Ltmp26:
	.loc	7 4 21 prologue_end
	movq	$0, 64(%rsp)
.Ltmp27:
	.loc	7 5 13
	movq	$0, 72(%rsp)
.LBB10_1:
.Ltmp28:
	.loc	7 6 7
	cmpq	$2000, 72(%rsp)
	.loc	7 6 1 is_stmt 0
	jl	.LBB10_3
	.loc	7 0 1
	movq	_ZN4core3fmt3num3imp52_$LT$impl$u20$core..fmt..Display$u20$for$u20$i64$GT$3fmt17h4ab02835cce07905E@GOTPCREL(%rip), %rsi
	.loc	7 20 1 is_stmt 1
	leaq	64(%rsp), %rax
	movq	%rax, 152(%rsp)
	movq	152(%rsp), %rax
	movq	%rax, 160(%rsp)
.Ltmp29:
	.loc	7 20 1 is_stmt 0
	movq	160(%rsp), %rdi
	callq	_ZN4core3fmt10ArgumentV13new17ha49368782a0d00daE
	movq	%rax, 56(%rsp)
	movq	%rdx, 48(%rsp)
	jmp	.LBB10_14
.Ltmp30:
.LBB10_3:
	.loc	7 7 14 is_stmt 1
	movl	$0, 80(%rsp)
.LBB10_4:
.Ltmp31:
	.loc	7 8 8
	cmpl	$2000, 80(%rsp)
	.loc	7 8 2 is_stmt 0
	jl	.LBB10_6
	.loc	7 17 2 is_stmt 1
	movq	72(%rsp), %rax
	incq	%rax
	seto	%cl
	testb	$1, %cl
	movq	%rax, 40(%rsp)
	jne	.LBB10_20
	jmp	.LBB10_13
.LBB10_6:
	.loc	7 9 15
	movl	$0, 84(%rsp)
.LBB10_7:
.Ltmp32:
	.loc	7 10 9
	cmpl	$2000, 84(%rsp)
	.loc	7 10 3 is_stmt 0
	jl	.LBB10_9
	.loc	7 15 3 is_stmt 1
	movl	80(%rsp), %eax
	incl	%eax
	seto	%cl
	testb	$1, %cl
	movl	%eax, 36(%rsp)
	jne	.LBB10_19
	jmp	.LBB10_12
.LBB10_9:
	.loc	7 11 12
	movq	72(%rsp), %rax
	.loc	7 11 4 is_stmt 0
	addq	64(%rsp), %rax
	seto	%cl
	testb	$1, %cl
	movq	%rax, 24(%rsp)
	jne	.LBB10_17
	.loc	7 0 4
	movq	24(%rsp), %rax
	.loc	7 11 4
	movq	%rax, 64(%rsp)
	.loc	7 12 4 is_stmt 1
	movl	84(%rsp), %ecx
	incl	%ecx
	seto	%dl
	testb	$1, %dl
	movl	%ecx, 20(%rsp)
	jne	.LBB10_18
	.loc	7 0 4 is_stmt 0
	movl	20(%rsp), %eax
	.loc	7 12 4
	movl	%eax, 84(%rsp)
	.loc	7 13 12 is_stmt 1
	#APP
	nop
	#NO_APP
	.loc	7 10 3
	jmp	.LBB10_7
.LBB10_12:
	.loc	7 0 3 is_stmt 0
	movl	36(%rsp), %eax
	.loc	7 15 3 is_stmt 1
	movl	%eax, 80(%rsp)
.Ltmp33:
	.loc	7 8 2
	jmp	.LBB10_4
.LBB10_13:
	.loc	7 0 2 is_stmt 0
	movq	40(%rsp), %rax
	.loc	7 17 2 is_stmt 1
	movq	%rax, 72(%rsp)
.Ltmp34:
	.loc	7 6 1
	jmp	.LBB10_1
.LBB10_14:
	.loc	7 0 1 is_stmt 0
	leaq	.L__unnamed_1(%rip), %rax
	movq	56(%rsp), %rcx
.Ltmp35:
	.loc	7 20 1 is_stmt 1
	movq	%rcx, 136(%rsp)
	movq	48(%rsp), %rdx
	movq	%rdx, 144(%rsp)
.Ltmp36:
	.loc	7 20 1 is_stmt 0
	leaq	136(%rsp), %rsi
	leaq	88(%rsp), %rdi
	movq	%rsi, 8(%rsp)
	movq	%rax, %rsi
	movl	$2, %edx
	movq	8(%rsp), %rcx
	movl	$1, %r8d
	callq	_ZN4core3fmt9Arguments6new_v117h3b68aedbd02220b7E
	leaq	88(%rsp), %rdi
	callq	*_ZN3std2io5stdio6_print17hd06bd1169e3ecdcfE@GOTPCREL(%rip)
.Ltmp37:
	.loc	7 21 1 is_stmt 1
	addq	$168, %rsp
	.cfi_def_cfa_offset 8
	retq
.LBB10_17:
	.cfi_def_cfa_offset 176
.Ltmp38:
	.loc	7 11 4
	leaq	str.1(%rip), %rdi
	leaq	.L__unnamed_2(%rip), %rdx
	movq	_ZN4core9panicking5panic17h3dfa98c2cb29928cE@GOTPCREL(%rip), %rax
	movl	$28, %esi
	callq	*%rax
	ud2
.LBB10_18:
	.loc	7 12 4
	leaq	str.1(%rip), %rdi
	leaq	.L__unnamed_3(%rip), %rdx
	movq	_ZN4core9panicking5panic17h3dfa98c2cb29928cE@GOTPCREL(%rip), %rax
	movl	$28, %esi
	callq	*%rax
	ud2
.LBB10_19:
	.loc	7 15 3
	leaq	str.1(%rip), %rdi
	leaq	.L__unnamed_4(%rip), %rdx
	movq	_ZN4core9panicking5panic17h3dfa98c2cb29928cE@GOTPCREL(%rip), %rax
	movl	$28, %esi
	callq	*%rax
	ud2
.Ltmp39:
.LBB10_20:
	.loc	7 17 2
	leaq	str.1(%rip), %rdi
	leaq	.L__unnamed_5(%rip), %rdx
	movq	_ZN4core9panicking5panic17h3dfa98c2cb29928cE@GOTPCREL(%rip), %rax
	movl	$28, %esi
	callq	*%rax
	ud2
.Ltmp40:
.Lfunc_end10:
	.size	_ZN4blah4main17h73645255eb6da523E, .Lfunc_end10-_ZN4blah4main17h73645255eb6da523E
	.cfi_endproc

	.section	.text.main,"ax",@progbits
	.globl	main
	.p2align	4, 0x90
	.type	main,@function
main:
.Lfunc_begin11:
	.cfi_startproc
	subq	$24, %rsp
	.cfi_def_cfa_offset 32
	movb	__rustc_debug_gdb_scripts_section__(%rip), %al
	movslq	%edi, %rcx
	leaq	_ZN4blah4main17h73645255eb6da523E(%rip), %rdi
	movq	%rsi, 16(%rsp)
	movq	%rcx, %rsi
	movq	16(%rsp), %rdx
	movb	%al, 15(%rsp)
	callq	_ZN3std2rt10lang_start17h61e5f11fc43499b0E
	addq	$24, %rsp
	.cfi_def_cfa_offset 8
	retq
.Lfunc_end11:
	.size	main, .Lfunc_end11-main
	.cfi_endproc

	.type	.Lvtable.0,@object
	.section	.data.rel.ro..Lvtable.0,"aw",@progbits
	.p2align	3
.Lvtable.0:
	.quad	_ZN4core3ptr18real_drop_in_place17h66f60b5da6e8a5fbE
	.quad	8
	.quad	8
	.quad	_ZN3std2rt10lang_start28_$u7b$$u7b$closure$u7d$$u7d$17hb0ba6925efc6e00bE
	.quad	_ZN3std2rt10lang_start28_$u7b$$u7b$closure$u7d$$u7d$17hb0ba6925efc6e00bE
	.quad	_ZN4core3ops8function6FnOnce40call_once$u7b$$u7b$vtable.shim$u7d$$u7d$17h85328a11400f02b0E
	.size	.Lvtable.0, 48

	.type	.L__unnamed_6,@object
	.section	.rodata..L__unnamed_6,"a",@progbits
.L__unnamed_6:
	.ascii	"blah.rs"
	.size	.L__unnamed_6, 7

	.type	.L__unnamed_2,@object
	.section	.data.rel.ro..L__unnamed_2,"aw",@progbits
	.p2align	3
.L__unnamed_2:
	.quad	.L__unnamed_6
	.asciz	"\007\000\000\000\000\000\000\000\013\000\000\000\021\000\000"
	.size	.L__unnamed_2, 24

	.type	str.1,@object
	.section	.rodata.str.1,"a",@progbits
	.p2align	4
str.1:
	.ascii	"attempt to add with overflow"
	.size	str.1, 28

	.type	.L__unnamed_3,@object
	.section	.data.rel.ro..L__unnamed_3,"aw",@progbits
	.p2align	3
.L__unnamed_3:
	.quad	.L__unnamed_6
	.asciz	"\007\000\000\000\000\000\000\000\f\000\000\000\021\000\000"
	.size	.L__unnamed_3, 24

	.type	.L__unnamed_4,@object
	.section	.data.rel.ro..L__unnamed_4,"aw",@progbits
	.p2align	3
.L__unnamed_4:
	.quad	.L__unnamed_6
	.asciz	"\007\000\000\000\000\000\000\000\017\000\000\000\r\000\000"
	.size	.L__unnamed_4, 24

	.type	.L__unnamed_5,@object
	.section	.data.rel.ro..L__unnamed_5,"aw",@progbits
	.p2align	3
.L__unnamed_5:
	.quad	.L__unnamed_6
	.asciz	"\007\000\000\000\000\000\000\000\021\000\000\000\t\000\000"
	.size	.L__unnamed_5, 24

	.type	.L__unnamed_7,@object
	.section	.rodata..L__unnamed_7,"a",@progbits
.L__unnamed_7:
	.size	.L__unnamed_7, 0

	.type	.L__unnamed_8,@object
	.section	.rodata..L__unnamed_8,"a",@progbits
.L__unnamed_8:
	.byte	10
	.size	.L__unnamed_8, 1

	.type	.L__unnamed_1,@object
	.section	.data.rel.ro..L__unnamed_1,"aw",@progbits
	.p2align	3
.L__unnamed_1:
	.quad	.L__unnamed_7
	.zero	8
	.quad	.L__unnamed_8
	.asciz	"\001\000\000\000\000\000\000"
	.size	.L__unnamed_1, 32

	.type	__rustc_debug_gdb_scripts_section__,@object
	.section	.debug_gdb_scripts,"aMS",@progbits,1
	.weak	__rustc_debug_gdb_scripts_section__
__rustc_debug_gdb_scripts_section__:
	.asciz	"\001gdb_load_rust_pretty_printers.py"
	.size	__rustc_debug_gdb_scripts_section__, 34

	.section	.data.rel.ro..Lvtable.0,"aw",@progbits
.Lsec_end0:
	.section	.text._ZN3std2rt10lang_start17h61e5f11fc43499b0E,"ax",@progbits
.Lsec_end1:
	.section	".text._ZN3std2rt10lang_start28_$u7b$$u7b$closure$u7d$$u7d$17hb0ba6925efc6e00bE","ax",@progbits
.Lsec_end2:
	.section	.text._ZN3std3sys4unix7process14process_common8ExitCode6as_i3217h3797b8e2140a9282E,"ax",@progbits
.Lsec_end3:
	.section	.text._ZN4core3fmt10ArgumentV13new17ha49368782a0d00daE,"ax",@progbits
.Lsec_end4:
	.section	.text._ZN4core3fmt9Arguments6new_v117h3b68aedbd02220b7E,"ax",@progbits
.Lsec_end5:
	.section	".text._ZN4core3ops8function6FnOnce40call_once$u7b$$u7b$vtable.shim$u7d$$u7d$17h85328a11400f02b0E","ax",@progbits
.Lsec_end6:
	.section	.text._ZN4core3ops8function6FnOnce9call_once17h1c6a3bdd323dafbcE,"ax",@progbits
.Lsec_end7:
	.section	.text._ZN4core3ptr18real_drop_in_place17h66f60b5da6e8a5fbE,"ax",@progbits
.Lsec_end8:
	.section	".text._ZN54_$LT$$LP$$RP$$u20$as$u20$std..process..Termination$GT$6report17ha6b420331382674fE","ax",@progbits
.Lsec_end9:
	.section	".text._ZN68_$LT$std..process..ExitCode$u20$as$u20$std..process..Termination$GT$6report17h8354cf3d096b63d2E","ax",@progbits
.Lsec_end10:
	.section	.text._ZN4blah4main17h73645255eb6da523E,"ax",@progbits
.Lsec_end11:
	.section	.data.DW.ref.rust_eh_personality,"aGw",@progbits,DW.ref.rust_eh_personality,comdat
	.p2align	3
	.type	DW.ref.rust_eh_personality,@object
	.size	DW.ref.rust_eh_personality, 8
DW.ref.rust_eh_personality:
	.quad	rust_eh_personality

	.section	".note.GNU-stack","",@progbits